target datalayout = "e-m:e-p270:32:32-p271:32:32-p272:64:64-i64:64-i128:128-f80:128-n8:16:32:64-S128"
target triple = "x86_64-pc-linux-gnu"

%struct.lua_Callbacks = type { ptr, ptr, ptr, ptr, ptr, ptr, ptr, ptr, ptr }

@.str.113 = private unnamed_addr constant [22 x i8] c"Execution interrupted\00", align 1

; Function Attrs: mustprogress uwtable
define internal void @_ZL14sigintCallbackP9lua_Statei(ptr noundef %0, i32 noundef %1) #1 {
  %3 = alloca ptr, align 8
  %4 = alloca i32, align 4
  store ptr %0, ptr %3, align 8
  store i32 %1, ptr %4, align 4
  %5 = load i32, ptr %4, align 4
  %6 = icmp sge i32 %5, 0
  br i1 %6, label %7, label %8

7:                                                ; preds = %2
  ret void

8:                                                ; preds = %2
  %9 = load ptr, ptr %3, align 8
  %10 = call noundef ptr @_Z13lua_callbacksP9lua_State(ptr noundef %9)
  %11 = getelementptr inbounds %struct.lua_Callbacks, ptr %10, i32 0, i32 1
  store ptr null, ptr %11, align 8
  %12 = load ptr, ptr %3, align 8
  call void @_Z17lua_rawcheckstackP9lua_Statei(ptr noundef %12, i32 noundef 1)
  %13 = load ptr, ptr %3, align 8
  call void (ptr, ptr, ...) @_Z11luaL_errorLP9lua_StatePKcz(ptr noundef %13, ptr noundef @.str.113) #12
  unreachable
}