; Function Attrs: mustprogress uwtable
define internal void @_ZL14sigintCallbackP9lua_Statei(ptr noundef %0, i32 noundef %1) #1 {
  %3 = icmp sgt i32 %1, -1
  br i1 %3, label %4, label %5

4:                                                ; preds = %2
  ret void

5:                                                ; preds = %2
  %6 = tail call noundef ptr @_Z13lua_callbacksP9lua_State(ptr noundef %0)
  %7 = getelementptr inbounds i8, ptr %6, i64 8
  store ptr null, ptr %7, align 8
  tail call void @_Z17lua_rawcheckstackP9lua_Statei(ptr noundef %0, i32 noundef 1)
  tail call void (ptr, ptr, ...) @_Z11luaL_errorLP9lua_StatePKcz(ptr noundef %0, ptr noundef nonnull @.str.113) #23
  unreachable
}